target datalayout = "e-m:e-p270:32:32-p271:32:32-p272:64:64-i64:64-i128:128-f80:128-n8:16:32:64-S128"
target triple = "x86_64-pc-linux-gnu"

%"class.std::shared_ptr" = type { %"class.std::__shared_ptr" }
%"class.std::__shared_ptr" = type { ptr, %"class.std::__shared_count" }
%"class.std::__shared_count" = type { ptr }
%"class.std::vector.9" = type { %"struct.std::_Vector_base.10" }
%"struct.std::_Vector_base.10" = type { %"struct.std::_Vector_base<open_spiel::checkers::CellState, std::allocator<open_spiel::checkers::CellState>>::_Vector_impl" }
%"struct.std::_Vector_base<open_spiel::checkers::CellState, std::allocator<open_spiel::checkers::CellState>>::_Vector_impl" = type { %"struct.std::_Vector_base<open_spiel::checkers::CellState, std::allocator<open_spiel::checkers::CellState>>::_Vector_impl_data" }
%"struct.std::_Vector_base<open_spiel::checkers::CellState, std::allocator<open_spiel::checkers::CellState>>::_Vector_impl_data" = type { ptr, ptr, ptr }
%"class.open_spiel::checkers::CheckersState" = type { %"class.open_spiel::State.base", i32, i32, i32, i32, i32, i32, %"class.std::vector.9", %"class.std::vector.14" }
%"class.open_spiel::State.base" = type <{ ptr, %"class.std::shared_ptr", i32, i32, %"class.std::vector", i32 }>
%"class.std::vector" = type { %"struct.std::_Vector_base" }
%"struct.std::_Vector_base" = type { %"struct.std::_Vector_base<open_spiel::State::PlayerAction, std::allocator<open_spiel::State::PlayerAction>>::_Vector_impl" }
%"struct.std::_Vector_base<open_spiel::State::PlayerAction, std::allocator<open_spiel::State::PlayerAction>>::_Vector_impl" = type { %"struct.std::_Vector_base<open_spiel::State::PlayerAction, std::allocator<open_spiel::State::PlayerAction>>::_Vector_impl_data" }
%"struct.std::_Vector_base<open_spiel::State::PlayerAction, std::allocator<open_spiel::State::PlayerAction>>::_Vector_impl_data" = type { ptr, ptr, ptr }
%"class.std::vector.14" = type { %"struct.std::_Vector_base.15" }
%"struct.std::_Vector_base.15" = type { %"struct.std::_Vector_base<open_spiel::checkers::TurnHistoryInfo, std::allocator<open_spiel::checkers::TurnHistoryInfo>>::_Vector_impl" }
%"struct.std::_Vector_base<open_spiel::checkers::TurnHistoryInfo, std::allocator<open_spiel::checkers::TurnHistoryInfo>>::_Vector_impl" = type { %"struct.std::_Vector_base<open_spiel::checkers::TurnHistoryInfo, std::allocator<open_spiel::checkers::TurnHistoryInfo>>::_Vector_impl_data" }
%"struct.std::_Vector_base<open_spiel::checkers::TurnHistoryInfo, std::allocator<open_spiel::checkers::TurnHistoryInfo>>::_Vector_impl_data" = type { ptr, ptr, ptr }

; Function Attrs: mustprogress nounwind uwtable
define noundef i32 @_ZN10open_spiel8checkers13CheckersState26CrownStateIfLastRowReachedEiNS0_9CellStateE(ptr noundef nonnull align 8 dereferenceable(136) %0, i32 noundef %1, i32 noundef %2) #5 align 2 {
  %4 = alloca i32, align 4
  %5 = alloca ptr, align 8
  %6 = alloca i32, align 4
  %7 = alloca i32, align 4
  store ptr %0, ptr %5, align 8
  store i32 %1, ptr %6, align 4
  store i32 %2, ptr %7, align 4
  %8 = load ptr, ptr %5, align 8
  %9 = load i32, ptr %6, align 4
  %10 = icmp eq i32 %9, 0
  br i1 %10, label %11, label %15

11:                                               ; preds = %3
  %12 = load i32, ptr %7, align 4
  %13 = icmp eq i32 %12, 1
  br i1 %13, label %14, label %15

14:                                               ; preds = %11
  store i32 3, ptr %4, align 4
  br label %27

15:                                               ; preds = %11, %3
  %16 = load i32, ptr %6, align 4
  %17 = getelementptr inbounds nuw %"class.open_spiel::checkers::CheckersState", ptr %8, i32 0, i32 4
  %18 = load i32, ptr %17, align 8
  %19 = sub nsw i32 %18, 1
  %20 = icmp eq i32 %16, %19
  br i1 %20, label %21, label %25

21:                                               ; preds = %15
  %22 = load i32, ptr %7, align 4
  %23 = icmp eq i32 %22, 2
  br i1 %23, label %24, label %25

24:                                               ; preds = %21
  store i32 4, ptr %4, align 4
  br label %27

25:                                               ; preds = %21, %15
  %26 = load i32, ptr %7, align 4
  store i32 %26, ptr %4, align 4
  br label %27

27:                                               ; preds = %25, %24, %14
  %28 = load i32, ptr %4, align 4
  ret i32 %28
}