; Function Attrs: mustprogress nofree norecurse nosync nounwind willreturn memory(argmem: read) uwtable
define noundef i32 @_ZN10open_spiel8checkers13CheckersState26CrownStateIfLastRowReachedEiNS0_9CellStateE(ptr nocapture noundef nonnull readonly align 8 dereferenceable(136) %0, i32 noundef %1, i32 noundef %2) local_unnamed_addr #6 align 2 {
  %4 = icmp eq i32 %1, 0
  %5 = icmp eq i32 %2, 1
  %or.cond = and i1 %4, %5
  br i1 %or.cond, label %12, label %6

6:                                                ; preds = %3
  %7 = getelementptr inbounds nuw i8, ptr %0, i64 72
  %8 = load i32, ptr %7, align 8
  %9 = add nsw i32 %8, -1
  %10 = icmp eq i32 %1, %9
  %11 = icmp eq i32 %2, 2
  %or.cond3 = and i1 %11, %10
  %. = select i1 %or.cond3, i32 4, i32 %2
  br label %12

12:                                               ; preds = %6, %3
  %.0 = phi i32 [ 3, %3 ], [ %., %6 ]
  ret i32 %.0
}